; ModuleID = '3/2602.c'
source_filename = "3/2602.c"
target datalayout = "e-m:e-p270:32:32-p271:32:32-p272:64:64-i64:64-f80:128-n8:16:32:64-S128"
target triple = "x86_64-pc-linux-gnu"

@.str = private unnamed_addr constant [6 x i8] c"%d %d\00", align 1
@.str.1 = private unnamed_addr constant [3 x i8] c"%d\00", align 1
@a = common dso_local global [1000 x i32] zeroinitializer, align 16
@.str.2 = private unnamed_addr constant [3 x i8] c"%c\00", align 1

; Function Attrs: noinline nounwind uwtable
define dso_local i32 @main() #0 {
  %1 = alloca i32, align 4
  %2 = alloca i32, align 4
  %3 = alloca i32, align 4
  %4 = alloca i32, align 4
  %5 = alloca i32, align 4
  %6 = alloca i32, align 4
  %7 = alloca i32, align 4
  %8 = alloca [3 x i8], align 1
  store i32 0, i32* %1, align 4
  %9 = getelementptr inbounds [3 x i8], [3 x i8]* %8, i64 0, i64 0
  store i8 97, i8* %9, align 1
  %10 = call i32 (i8*, ...) @__isoc99_scanf(i8* getelementptr inbounds ([6 x i8], [6 x i8]* @.str, i64 0, i64 0), i32* %3, i32* %6)
  store i32 0, i32* %2, align 4
  br label %11

11:                                               ; preds = %20, %0
  %12 = load i32, i32* %2, align 4
  %13 = load i32, i32* %3, align 4
  %14 = icmp slt i32 %12, %13
  br i1 %14, label %15, label %23

15:                                               ; preds = %11
  %16 = load i32, i32* %2, align 4
  %17 = sext i32 %16 to i64
  %18 = getelementptr inbounds [1000 x i32], [1000 x i32]* @a, i64 0, i64 %17
  %19 = call i32 (i8*, ...) @__isoc99_scanf(i8* getelementptr inbounds ([3 x i8], [3 x i8]* @.str.1, i64 0, i64 0), i32* %18)
  br label %20

20:                                               ; preds = %15
  %21 = load i32, i32* %2, align 4
  %22 = add nsw i32 %21, 1
  store i32 %22, i32* %2, align 4
  br label %11

23:                                               ; preds = %11
  store i32 0, i32* %2, align 4
  br label %24

24:                                               ; preds = %74, %23
  %25 = load i32, i32* %2, align 4
  %26 = load i32, i32* %3, align 4
  %27 = icmp slt i32 %25, %26
  br i1 %27, label %28, label %77

28:                                               ; preds = %24
  store i32 0, i32* %5, align 4
  br label %29

29:                                               ; preds = %64, %28
  %30 = load i32, i32* %5, align 4
  %31 = load i32, i32* %3, align 4
  %32 = icmp slt i32 %30, %31
  br i1 %32, label %33, label %67

33:                                               ; preds = %29
  %34 = load i32, i32* %6, align 4
  %35 = load i32, i32* %2, align 4
  %36 = sext i32 %35 to i64
  %37 = getelementptr inbounds [1000 x i32], [1000 x i32]* @a, i64 0, i64 %36
  %38 = load i32, i32* %37, align 4
  %39 = load i32, i32* %5, align 4
  %40 = sext i32 %39 to i64
  %41 = getelementptr inbounds [1000 x i32], [1000 x i32]* @a, i64 0, i64 %40
  %42 = load i32, i32* %41, align 4
  %43 = add nsw i32 %38, %42
  %44 = icmp eq i32 %34, %43
  br i1 %44, label %45, label %63

45:                                               ; preds = %33
  %46 = getelementptr inbounds [3 x i8], [3 x i8]* %8, i64 0, i64 0
  store i8 121, i8* %46, align 1
  %47 = getelementptr inbounds [3 x i8], [3 x i8]* %8, i64 0, i64 1
  store i8 101, i8* %47, align 1
  %48 = getelementptr inbounds [3 x i8], [3 x i8]* %8, i64 0, i64 2
  store i8 115, i8* %48, align 1
  store i32 0, i32* %7, align 4
  br label %49

49:                                               ; preds = %59, %45
  %50 = load i32, i32* %7, align 4
  %51 = icmp slt i32 %50, 3
  br i1 %51, label %52, label %62

52:                                               ; preds = %49
  %53 = load i32, i32* %7, align 4
  %54 = sext i32 %53 to i64
  %55 = getelementptr inbounds [3 x i8], [3 x i8]* %8, i64 0, i64 %54
  %56 = load i8, i8* %55, align 1
  %57 = sext i8 %56 to i32
  %58 = call i32 (i8*, ...) @printf(i8* getelementptr inbounds ([3 x i8], [3 x i8]* @.str.2, i64 0, i64 0), i32 %57)
  br label %59

59:                                               ; preds = %52
  %60 = load i32, i32* %7, align 4
  %61 = add nsw i32 %60, 1
  store i32 %61, i32* %7, align 4
  br label %49

62:                                               ; preds = %49
  br label %67

63:                                               ; preds = %33
  br label %64

64:                                               ; preds = %63
  %65 = load i32, i32* %5, align 4
  %66 = add nsw i32 %65, 1
  store i32 %66, i32* %5, align 4
  br label %29

67:                                               ; preds = %62, %29
  %68 = getelementptr inbounds [3 x i8], [3 x i8]* %8, i64 0, i64 0
  %69 = load i8, i8* %68, align 1
  %70 = sext i8 %69 to i32
  %71 = icmp eq i32 %70, 121
  br i1 %71, label %72, label %73

72:                                               ; preds = %67
  br label %77

73:                                               ; preds = %67
  br label %74

74:                                               ; preds = %73
  %75 = load i32, i32* %2, align 4
  %76 = add nsw i32 %75, 1
  store i32 %76, i32* %2, align 4
  br label %24

77:                                               ; preds = %72, %24
  %78 = getelementptr inbounds [3 x i8], [3 x i8]* %8, i64 0, i64 0
  %79 = load i8, i8* %78, align 1
  %80 = sext i8 %79 to i32
  %81 = icmp ne i32 %80, 121
  br i1 %81, label %82, label %99

82:                                               ; preds = %77
  %83 = getelementptr inbounds [3 x i8], [3 x i8]* %8, i64 0, i64 0
  store i8 110, i8* %83, align 1
  %84 = getelementptr inbounds [3 x i8], [3 x i8]* %8, i64 0, i64 1
  store i8 111, i8* %84, align 1
  store i32 0, i32* %7, align 4
  br label %85

85:                                               ; preds = %95, %82
  %86 = load i32, i32* %7, align 4
  %87 = icmp slt i32 %86, 2
  br i1 %87, label %88, label %98

88:                                               ; preds = %85
  %89 = load i32, i32* %7, align 4
  %90 = sext i32 %89 to i64
  %91 = getelementptr inbounds [3 x i8], [3 x i8]* %8, i64 0, i64 %90
  %92 = load i8, i8* %91, align 1
  %93 = sext i8 %92 to i32
  %94 = call i32 (i8*, ...) @printf(i8* getelementptr inbounds ([3 x i8], [3 x i8]* @.str.2, i64 0, i64 0), i32 %93)
  br label %95

95:                                               ; preds = %88
  %96 = load i32, i32* %7, align 4
  %97 = add nsw i32 %96, 1
  store i32 %97, i32* %7, align 4
  br label %85

98:                                               ; preds = %85
  br label %99

99:                                               ; preds = %98, %77
  ret i32 0
}

declare dso_local i32 @__isoc99_scanf(i8*, ...) #1

declare dso_local i32 @printf(i8*, ...) #1


!llvm.module.flags = !{!0}
!llvm.ident = !{!1}

!0 = !{i32 1, !"wchar_size", i32 4}
!1 = !{!"clang version 10.0.0-4ubuntu1 "}
